; Function Attrs: mustprogress nofree norecurse nosync nounwind willreturn memory(read, argmem: readwrite, inaccessiblemem: none) uwtable
define hidden noundef zeroext i1 @_ZNK14bv_recognizers9is_bv2intEPK4exprRPS0_(ptr noundef nonnull readonly align 4 captures(none) dereferenceable(4) %0, ptr noundef readonly captures(none) %1, ptr noundef nonnull writeonly align 8 captures(none) dereferenceable(8) %2) local_unnamed_addr #12 align 2 {
  %4 = load i32, ptr %0, align 4, !tbaa !179
  %5 = getelementptr inbounds nuw i8, ptr %1, i64 4
  %6 = load i32, ptr %5, align 4
  %7 = and i32 %6, 65535
  %8 = icmp eq i32 %7, 0
  br i1 %8, label %9, label %_ZNK14bv_recognizers9is_bv2intEPK4expr.exit.thread

9:                                                ; preds = %3
  %10 = getelementptr inbounds nuw i8, ptr %1, i64 16
  %11 = load ptr, ptr %10, align 8, !tbaa !163
  %12 = getelementptr inbounds nuw i8, ptr %11, i64 24
  %13 = load ptr, ptr %12, align 8, !tbaa !134
  %.not.i.i.i.i = icmp eq ptr %13, null
  br i1 %.not.i.i.i.i, label %_ZNK14bv_recognizers9is_bv2intEPK4expr.exit.thread, label %_ZNK14bv_recognizers9is_bv2intEPK4expr.exit

_ZNK14bv_recognizers9is_bv2intEPK4expr.exit:      ; preds = %9
  %14 = load i32, ptr %13, align 8, !tbaa !19
  %15 = icmp eq i32 %14, %4
  %16 = getelementptr inbounds nuw i8, ptr %13, i64 4
  %17 = load i32, ptr %16, align 4
  %18 = icmp eq i32 %17, 66
  %19 = select i1 %15, i1 %18, i1 false
  br i1 %19, label %20, label %_ZNK14bv_recognizers9is_bv2intEPK4expr.exit.thread

20:                                               ; preds = %_ZNK14bv_recognizers9is_bv2intEPK4expr.exit
  %21 = getelementptr inbounds nuw i8, ptr %1, i64 32
  %22 = load ptr, ptr %21, align 8, !tbaa !159
  store ptr %22, ptr %2, align 8, !tbaa !159
  br label %_ZNK14bv_recognizers9is_bv2intEPK4expr.exit.thread

_ZNK14bv_recognizers9is_bv2intEPK4expr.exit.thread: ; preds = %9, %3, %_ZNK14bv_recognizers9is_bv2intEPK4expr.exit, %20
  %23 = phi i1 [ false, %_ZNK14bv_recognizers9is_bv2intEPK4expr.exit ], [ true, %20 ], [ false, %3 ], [ false, %9 ]
  ret i1 %23
}